target datalayout = "e-m:e-p270:32:32-p271:32:32-p272:64:64-i64:64-i128:128-f80:128-n8:16:32:64-S128"
target triple = "x86_64-pc-linux-gnu"

@ett_samr_samr_Password = internal global i32 0, align 4
@hf_samr_samr_ChangePasswordUser_new_lm_crypted = internal global i32 0, align 4
@hf_samr_samr_Password_hash = internal global i32 0, align 4

; Function Attrs: null_pointer_is_valid sspstrong uwtable
define internal i32 @samr_dissect_element_Password_hash_(ptr noundef %0, i32 noundef %1, ptr noundef %2, ptr noundef %3, ptr noundef %4, ptr noundef %5) #0 {
  %7 = alloca ptr, align 8
  %8 = alloca i32, align 4
  %9 = alloca ptr, align 8
  %10 = alloca ptr, align 8
  %11 = alloca ptr, align 8
  %12 = alloca ptr, align 8
  store ptr %0, ptr %7, align 8
  store i32 %1, ptr %8, align 4
  store ptr %2, ptr %9, align 8
  store ptr %3, ptr %10, align 8
  store ptr %4, ptr %11, align 8
  store ptr %5, ptr %12, align 8
  %13 = load ptr, ptr %7, align 8
  %14 = load i32, ptr %8, align 4
  %15 = load ptr, ptr %9, align 8
  %16 = load ptr, ptr %10, align 8
  %17 = load ptr, ptr %11, align 8
  %18 = load ptr, ptr %12, align 8
  %19 = load i32, ptr @hf_samr_samr_Password_hash, align 4
  %20 = call i32 @PIDL_dissect_uint8(ptr noundef %13, i32 noundef %14, ptr noundef %15, ptr noundef %16, ptr noundef %17, ptr noundef %18, i32 noundef %19, i32 noundef 0)
  store i32 %20, ptr %8, align 4
  %21 = load i32, ptr %8, align 4
  ret i32 %21
}

; Function Attrs: null_pointer_is_valid sspstrong uwtable
define internal i32 @samr_dissect_element_Password_hash(ptr noundef %0, i32 noundef %1, ptr noundef %2, ptr noundef %3, ptr noundef %4, ptr noundef %5) #0 {
  %7 = alloca ptr, align 8
  %8 = alloca i32, align 4
  %9 = alloca ptr, align 8
  %10 = alloca ptr, align 8
  %11 = alloca ptr, align 8
  %12 = alloca ptr, align 8
  %13 = alloca i32, align 4
  store ptr %0, ptr %7, align 8
  store i32 %1, ptr %8, align 4
  store ptr %2, ptr %9, align 8
  store ptr %3, ptr %10, align 8
  store ptr %4, ptr %11, align 8
  store ptr %5, ptr %12, align 8
  call void @llvm.lifetime.start.p0(i64 4, ptr %13) #4
  store i32 0, ptr %13, align 4
  br label %14

14:                                               ; preds = %25, %6
  %15 = load i32, ptr %13, align 4
  %16 = icmp slt i32 %15, 16
  br i1 %16, label %17, label %28

17:                                               ; preds = %14
  %18 = load ptr, ptr %7, align 8
  %19 = load i32, ptr %8, align 4
  %20 = load ptr, ptr %9, align 8
  %21 = load ptr, ptr %10, align 8
  %22 = load ptr, ptr %11, align 8
  %23 = load ptr, ptr %12, align 8
  %24 = call i32 @samr_dissect_element_Password_hash_(ptr noundef %18, i32 noundef %19, ptr noundef %20, ptr noundef %21, ptr noundef %22, ptr noundef %23)
  store i32 %24, ptr %8, align 4
  br label %25

25:                                               ; preds = %17
  %26 = load i32, ptr %13, align 4
  %27 = add i32 %26, 1
  store i32 %27, ptr %13, align 4
  br label %14, !llvm.loop !8

28:                                               ; preds = %14
  %29 = load i32, ptr %8, align 4
  call void @llvm.lifetime.end.p0(i64 4, ptr %13) #4
  ret i32 %29
}

; Function Attrs: null_pointer_is_valid sspstrong uwtable
define hidden i32 @samr_dissect_struct_Password(ptr noundef %0, i32 noundef %1, ptr noundef %2, ptr noundef %3, ptr noundef %4, ptr noundef %5, i32 noundef %6, i32 noundef %7) #0 {
  %9 = alloca ptr, align 8
  %10 = alloca i32, align 4
  %11 = alloca ptr, align 8
  %12 = alloca ptr, align 8
  %13 = alloca ptr, align 8
  %14 = alloca ptr, align 8
  %15 = alloca i32, align 4
  %16 = alloca i32, align 4
  %17 = alloca ptr, align 8
  %18 = alloca ptr, align 8
  %19 = alloca i32, align 4
  store ptr %0, ptr %9, align 8
  store i32 %1, ptr %10, align 4
  store ptr %2, ptr %11, align 8
  store ptr %3, ptr %12, align 8
  store ptr %4, ptr %13, align 8
  store ptr %5, ptr %14, align 8
  store i32 %6, ptr %15, align 4
  store i32 %7, ptr %16, align 4
  call void @llvm.lifetime.start.p0(i64 8, ptr %17) #4
  store ptr null, ptr %17, align 8
  call void @llvm.lifetime.start.p0(i64 8, ptr %18) #4
  store ptr null, ptr %18, align 8
  call void @llvm.lifetime.start.p0(i64 4, ptr %19) #4
  %20 = load i32, ptr %10, align 4
  store i32 %20, ptr %19, align 4
  %21 = load ptr, ptr %12, align 8
  %22 = icmp ne ptr %21, null
  br i1 %22, label %23, label %32

23:                                               ; preds = %8
  %24 = load ptr, ptr %12, align 8
  %25 = load i32, ptr %15, align 4
  %26 = load ptr, ptr %9, align 8
  %27 = load i32, ptr %10, align 4
  %28 = call ptr @proto_tree_add_item(ptr noundef %24, i32 noundef %25, ptr noundef %26, i32 noundef %27, i32 noundef -1, i32 noundef 0)
  store ptr %28, ptr %17, align 8
  %29 = load ptr, ptr %17, align 8
  %30 = load i32, ptr @ett_samr_samr_Password, align 4
  %31 = call ptr @proto_item_add_subtree(ptr noundef %29, i32 noundef %30)
  store ptr %31, ptr %18, align 8
  br label %32

32:                                               ; preds = %23, %8
  %33 = load ptr, ptr %9, align 8
  %34 = load i32, ptr %10, align 4
  %35 = load ptr, ptr %11, align 8
  %36 = load ptr, ptr %18, align 8
  %37 = load ptr, ptr %13, align 8
  %38 = load ptr, ptr %14, align 8
  %39 = call i32 @samr_dissect_element_Password_hash(ptr noundef %33, i32 noundef %34, ptr noundef %35, ptr noundef %36, ptr noundef %37, ptr noundef %38)
  store i32 %39, ptr %10, align 4
  %40 = load ptr, ptr %17, align 8
  %41 = load i32, ptr %10, align 4
  %42 = load i32, ptr %19, align 4
  %43 = sub i32 %41, %42
  call void @proto_item_set_len(ptr noundef %40, i32 noundef %43)
  %44 = load i32, ptr %10, align 4
  call void @llvm.lifetime.end.p0(i64 4, ptr %19) #4
  call void @llvm.lifetime.end.p0(i64 8, ptr %18) #4
  call void @llvm.lifetime.end.p0(i64 8, ptr %17) #4
  ret i32 %44
}

; Function Attrs: null_pointer_is_valid sspstrong uwtable
define internal i32 @samr_dissect_element_ChangePasswordUser_new_lm_crypted_(ptr noundef %0, i32 noundef %1, ptr noundef %2, ptr noundef %3, ptr noundef %4, ptr noundef %5) #0 {
  %7 = alloca ptr, align 8
  %8 = alloca i32, align 4
  %9 = alloca ptr, align 8
  %10 = alloca ptr, align 8
  %11 = alloca ptr, align 8
  %12 = alloca ptr, align 8
  store ptr %0, ptr %7, align 8
  store i32 %1, ptr %8, align 4
  store ptr %2, ptr %9, align 8
  store ptr %3, ptr %10, align 8
  store ptr %4, ptr %11, align 8
  store ptr %5, ptr %12, align 8
  %13 = load ptr, ptr %7, align 8
  %14 = load i32, ptr %8, align 4
  %15 = load ptr, ptr %9, align 8
  %16 = load ptr, ptr %10, align 8
  %17 = load ptr, ptr %11, align 8
  %18 = load ptr, ptr %12, align 8
  %19 = load i32, ptr @hf_samr_samr_ChangePasswordUser_new_lm_crypted, align 4
  %20 = call i32 @samr_dissect_struct_Password(ptr noundef %13, i32 noundef %14, ptr noundef %15, ptr noundef %16, ptr noundef %17, ptr noundef %18, i32 noundef %19, i32 noundef 0)
  store i32 %20, ptr %8, align 4
  %21 = load i32, ptr %8, align 4
  ret i32 %21
}